
UART communication.elf:     file format elf32-avr

Sections:
Idx Name          Size      VMA       LMA       File off  Algn
  0 .data         00000004  00800100  000001c0  00000234  2**0
                  CONTENTS, ALLOC, LOAD, DATA
  1 .text         000001c0  00000000  00000000  00000074  2**1
                  CONTENTS, ALLOC, LOAD, READONLY, CODE
  2 .comment      00000030  00000000  00000000  00000238  2**0
                  CONTENTS, READONLY
  3 .note.gnu.avr.deviceinfo 00000040  00000000  00000000  00000268  2**2
                  CONTENTS, READONLY
  4 .debug_aranges 00000040  00000000  00000000  000002a8  2**0
                  CONTENTS, READONLY, DEBUGGING
  5 .debug_info   000007e9  00000000  00000000  000002e8  2**0
                  CONTENTS, READONLY, DEBUGGING
  6 .debug_abbrev 0000071a  00000000  00000000  00000ad1  2**0
                  CONTENTS, READONLY, DEBUGGING
  7 .debug_line   000002f8  00000000  00000000  000011eb  2**0
                  CONTENTS, READONLY, DEBUGGING
  8 .debug_frame  00000070  00000000  00000000  000014e4  2**2
                  CONTENTS, READONLY, DEBUGGING
  9 .debug_str    000003e2  00000000  00000000  00001554  2**0
                  CONTENTS, READONLY, DEBUGGING
 10 .debug_loc    000000e4  00000000  00000000  00001936  2**0
                  CONTENTS, READONLY, DEBUGGING
 11 .debug_ranges 00000030  00000000  00000000  00001a1a  2**0
                  CONTENTS, READONLY, DEBUGGING

Disassembly of section .text:

00000000 <__vectors>:
   0:	0c 94 34 00 	jmp	0x68	; 0x68 <__ctors_end>
   4:	0c 94 49 00 	jmp	0x92	; 0x92 <__bad_interrupt>
   8:	0c 94 49 00 	jmp	0x92	; 0x92 <__bad_interrupt>
   c:	0c 94 49 00 	jmp	0x92	; 0x92 <__bad_interrupt>
  10:	0c 94 49 00 	jmp	0x92	; 0x92 <__bad_interrupt>
  14:	0c 94 49 00 	jmp	0x92	; 0x92 <__bad_interrupt>
  18:	0c 94 49 00 	jmp	0x92	; 0x92 <__bad_interrupt>
  1c:	0c 94 49 00 	jmp	0x92	; 0x92 <__bad_interrupt>
  20:	0c 94 49 00 	jmp	0x92	; 0x92 <__bad_interrupt>
  24:	0c 94 49 00 	jmp	0x92	; 0x92 <__bad_interrupt>
  28:	0c 94 49 00 	jmp	0x92	; 0x92 <__bad_interrupt>
  2c:	0c 94 49 00 	jmp	0x92	; 0x92 <__bad_interrupt>
  30:	0c 94 49 00 	jmp	0x92	; 0x92 <__bad_interrupt>
  34:	0c 94 49 00 	jmp	0x92	; 0x92 <__bad_interrupt>
  38:	0c 94 49 00 	jmp	0x92	; 0x92 <__bad_interrupt>
  3c:	0c 94 49 00 	jmp	0x92	; 0x92 <__bad_interrupt>
  40:	0c 94 49 00 	jmp	0x92	; 0x92 <__bad_interrupt>
  44:	0c 94 49 00 	jmp	0x92	; 0x92 <__bad_interrupt>
  48:	0c 94 49 00 	jmp	0x92	; 0x92 <__bad_interrupt>
  4c:	0c 94 49 00 	jmp	0x92	; 0x92 <__bad_interrupt>
  50:	0c 94 49 00 	jmp	0x92	; 0x92 <__bad_interrupt>
  54:	0c 94 49 00 	jmp	0x92	; 0x92 <__bad_interrupt>
  58:	0c 94 49 00 	jmp	0x92	; 0x92 <__bad_interrupt>
  5c:	0c 94 49 00 	jmp	0x92	; 0x92 <__bad_interrupt>
  60:	0c 94 49 00 	jmp	0x92	; 0x92 <__bad_interrupt>
  64:	0c 94 49 00 	jmp	0x92	; 0x92 <__bad_interrupt>

00000068 <__ctors_end>:
  68:	11 24       	eor	r1, r1
  6a:	1f be       	out	0x3f, r1	; 63
  6c:	cf ef       	ldi	r28, 0xFF	; 255
  6e:	d8 e0       	ldi	r29, 0x08	; 8
  70:	de bf       	out	0x3e, r29	; 62
  72:	cd bf       	out	0x3d, r28	; 61

00000074 <__do_copy_data>:
  74:	11 e0       	ldi	r17, 0x01	; 1
  76:	a0 e0       	ldi	r26, 0x00	; 0
  78:	b1 e0       	ldi	r27, 0x01	; 1
  7a:	e0 ec       	ldi	r30, 0xC0	; 192
  7c:	f1 e0       	ldi	r31, 0x01	; 1
  7e:	02 c0       	rjmp	.+4      	; 0x84 <__do_copy_data+0x10>
  80:	05 90       	lpm	r0, Z+
  82:	0d 92       	st	X+, r0
  84:	a4 30       	cpi	r26, 0x04	; 4
  86:	b1 07       	cpc	r27, r17
  88:	d9 f7       	brne	.-10     	; 0x80 <__do_copy_data+0xc>
  8a:	0e 94 88 00 	call	0x110	; 0x110 <main>
  8e:	0c 94 de 00 	jmp	0x1bc	; 0x1bc <_exit>

00000092 <__bad_interrupt>:
  92:	0c 94 00 00 	jmp	0	; 0x0 <__vectors>

00000096 <USART_Init>:
	/* Wait for data to be received */
	while (!(UCSR0A & (1<<RXC0)))
	;
	/* Get and return received data from buffer */
	return UDR0;
}
  96:	9c 01       	movw	r18, r24
  98:	e4 e6       	ldi	r30, 0x64	; 100
  9a:	f0 e0       	ldi	r31, 0x00	; 0
  9c:	80 81       	ld	r24, Z
  9e:	8d 7f       	andi	r24, 0xFD	; 253
  a0:	80 83       	st	Z, r24
  a2:	03 2e       	mov	r0, r19
  a4:	00 0c       	add	r0, r0
  a6:	44 0b       	sbc	r20, r20
  a8:	55 0b       	sbc	r21, r21
  aa:	60 e4       	ldi	r22, 0x40	; 64
  ac:	72 e4       	ldi	r23, 0x42	; 66
  ae:	8f e0       	ldi	r24, 0x0F	; 15
  b0:	90 e0       	ldi	r25, 0x00	; 0
  b2:	0e 94 9d 00 	call	0x13a	; 0x13a <__divmodsi4>
  b6:	da 01       	movw	r26, r20
  b8:	c9 01       	movw	r24, r18
  ba:	01 97       	sbiw	r24, 0x01	; 1
  bc:	a1 09       	sbc	r26, r1
  be:	b1 09       	sbc	r27, r1
  c0:	89 2f       	mov	r24, r25
  c2:	9a 2f       	mov	r25, r26
  c4:	ab 2f       	mov	r26, r27
  c6:	bb 27       	eor	r27, r27
  c8:	a7 fd       	sbrc	r26, 7
  ca:	ba 95       	dec	r27
  cc:	80 93 c5 00 	sts	0x00C5, r24	; 0x8000c5 <__DATA_REGION_ORIGIN__+0x65>
  d0:	21 50       	subi	r18, 0x01	; 1
  d2:	20 93 c4 00 	sts	0x00C4, r18	; 0x8000c4 <__DATA_REGION_ORIGIN__+0x64>
  d6:	e1 ec       	ldi	r30, 0xC1	; 193
  d8:	f0 e0       	ldi	r31, 0x00	; 0
  da:	80 81       	ld	r24, Z
  dc:	88 61       	ori	r24, 0x18	; 24
  de:	80 83       	st	Z, r24
  e0:	08 95       	ret

000000e2 <USART_Transmit>:
  e2:	e0 ec       	ldi	r30, 0xC0	; 192
  e4:	f0 e0       	ldi	r31, 0x00	; 0
  e6:	90 81       	ld	r25, Z
  e8:	95 ff       	sbrs	r25, 5
  ea:	fd cf       	rjmp	.-6      	; 0xe6 <USART_Transmit+0x4>
  ec:	80 93 c6 00 	sts	0x00C6, r24	; 0x8000c6 <__DATA_REGION_ORIGIN__+0x66>
  f0:	08 95       	ret

000000f2 <USART_Transmit_String>:
void USART_Transmit_String( char *p)
{
  f2:	cf 93       	push	r28
  f4:	df 93       	push	r29
  f6:	ec 01       	movw	r28, r24
	int i=0;
	while(*(p+i)!='\0')
  f8:	88 81       	ld	r24, Y
  fa:	88 23       	and	r24, r24
  fc:	31 f0       	breq	.+12     	; 0x10a <USART_Transmit_String+0x18>
  fe:	21 96       	adiw	r28, 0x01	; 1
	{
		 USART_Transmit(*(p+i));
 100:	0e 94 71 00 	call	0xe2	; 0xe2 <USART_Transmit>
	return UDR0;
}
void USART_Transmit_String( char *p)
{
	int i=0;
	while(*(p+i)!='\0')
 104:	89 91       	ld	r24, Y+
 106:	81 11       	cpse	r24, r1
 108:	fb cf       	rjmp	.-10     	; 0x100 <USART_Transmit_String+0xe>
	{
		 USART_Transmit(*(p+i));
		 i++;
	}
}
 10a:	df 91       	pop	r29
 10c:	cf 91       	pop	r28
 10e:	08 95       	ret

00000110 <main>:
#include "MyUSART.h"
#include <util/delay.h>
int main()
{
	USART_Init(9600);
 110:	80 e8       	ldi	r24, 0x80	; 128
 112:	95 e2       	ldi	r25, 0x25	; 37
 114:	0e 94 4b 00 	call	0x96	; 0x96 <USART_Init>
	while (1)
	{
		USART_Transmit_String("Hi");
 118:	80 e0       	ldi	r24, 0x00	; 0
 11a:	91 e0       	ldi	r25, 0x01	; 1
 11c:	0e 94 79 00 	call	0xf2	; 0xf2 <USART_Transmit_String>
	#else
		//round up by default
		__ticks_dc = (uint32_t)(ceil(fabs(__tmp)));
	#endif

	__builtin_avr_delay_cycles(__ticks_dc);
 120:	24 e5       	ldi	r18, 0x54	; 84
 122:	31 e8       	ldi	r19, 0x81	; 129
 124:	82 ef       	ldi	r24, 0xF2	; 242
 126:	97 e0       	ldi	r25, 0x07	; 7
 128:	21 50       	subi	r18, 0x01	; 1
 12a:	30 40       	sbci	r19, 0x00	; 0
 12c:	80 40       	sbci	r24, 0x00	; 0
 12e:	90 40       	sbci	r25, 0x00	; 0
 130:	d9 f7       	brne	.-10     	; 0x128 <main+0x18>
 132:	00 c0       	rjmp	.+0      	; 0x134 <main+0x24>
 134:	00 c0       	rjmp	.+0      	; 0x136 <main+0x26>
 136:	00 00       	nop
 138:	ef cf       	rjmp	.-34     	; 0x118 <main+0x8>

0000013a <__divmodsi4>:
 13a:	05 2e       	mov	r0, r21
 13c:	97 fb       	bst	r25, 7
 13e:	1e f4       	brtc	.+6      	; 0x146 <__divmodsi4+0xc>
 140:	00 94       	com	r0
 142:	0e 94 b4 00 	call	0x168	; 0x168 <__negsi2>
 146:	57 fd       	sbrc	r21, 7
 148:	07 d0       	rcall	.+14     	; 0x158 <__divmodsi4_neg2>
 14a:	0e 94 bc 00 	call	0x178	; 0x178 <__udivmodsi4>
 14e:	07 fc       	sbrc	r0, 7
 150:	03 d0       	rcall	.+6      	; 0x158 <__divmodsi4_neg2>
 152:	4e f4       	brtc	.+18     	; 0x166 <__divmodsi4_exit>
 154:	0c 94 b4 00 	jmp	0x168	; 0x168 <__negsi2>

00000158 <__divmodsi4_neg2>:
 158:	50 95       	com	r21
 15a:	40 95       	com	r20
 15c:	30 95       	com	r19
 15e:	21 95       	neg	r18
 160:	3f 4f       	sbci	r19, 0xFF	; 255
 162:	4f 4f       	sbci	r20, 0xFF	; 255
 164:	5f 4f       	sbci	r21, 0xFF	; 255

00000166 <__divmodsi4_exit>:
 166:	08 95       	ret

00000168 <__negsi2>:
 168:	90 95       	com	r25
 16a:	80 95       	com	r24
 16c:	70 95       	com	r23
 16e:	61 95       	neg	r22
 170:	7f 4f       	sbci	r23, 0xFF	; 255
 172:	8f 4f       	sbci	r24, 0xFF	; 255
 174:	9f 4f       	sbci	r25, 0xFF	; 255
 176:	08 95       	ret

00000178 <__udivmodsi4>:
 178:	a1 e2       	ldi	r26, 0x21	; 33
 17a:	1a 2e       	mov	r1, r26
 17c:	aa 1b       	sub	r26, r26
 17e:	bb 1b       	sub	r27, r27
 180:	fd 01       	movw	r30, r26
 182:	0d c0       	rjmp	.+26     	; 0x19e <__udivmodsi4_ep>

00000184 <__udivmodsi4_loop>:
 184:	aa 1f       	adc	r26, r26
 186:	bb 1f       	adc	r27, r27
 188:	ee 1f       	adc	r30, r30
 18a:	ff 1f       	adc	r31, r31
 18c:	a2 17       	cp	r26, r18
 18e:	b3 07       	cpc	r27, r19
 190:	e4 07       	cpc	r30, r20
 192:	f5 07       	cpc	r31, r21
 194:	20 f0       	brcs	.+8      	; 0x19e <__udivmodsi4_ep>
 196:	a2 1b       	sub	r26, r18
 198:	b3 0b       	sbc	r27, r19
 19a:	e4 0b       	sbc	r30, r20
 19c:	f5 0b       	sbc	r31, r21

0000019e <__udivmodsi4_ep>:
 19e:	66 1f       	adc	r22, r22
 1a0:	77 1f       	adc	r23, r23
 1a2:	88 1f       	adc	r24, r24
 1a4:	99 1f       	adc	r25, r25
 1a6:	1a 94       	dec	r1
 1a8:	69 f7       	brne	.-38     	; 0x184 <__udivmodsi4_loop>
 1aa:	60 95       	com	r22
 1ac:	70 95       	com	r23
 1ae:	80 95       	com	r24
 1b0:	90 95       	com	r25
 1b2:	9b 01       	movw	r18, r22
 1b4:	ac 01       	movw	r20, r24
 1b6:	bd 01       	movw	r22, r26
 1b8:	cf 01       	movw	r24, r30
 1ba:	08 95       	ret

000001bc <_exit>:
 1bc:	f8 94       	cli

000001be <__stop_program>:
 1be:	ff cf       	rjmp	.-2      	; 0x1be <__stop_program>
